target datalayout = "e-m:e-p270:32:32-p271:32:32-p272:64:64-i64:64-i128:128-f80:128-n8:16:32:64-S128"
target triple = "x86_64-pc-linux-gnu"

%struct.ccan_list_head = type { %struct.ccan_list_node }
%struct.ccan_list_node = type { ptr, ptr }
%struct.rb_objspace = type { %struct.anon.33, %struct.rb_gc_config, [3 x i8], %struct.anon.19, i32, i64, [5 x %struct.rb_heap_struct], i64, ptr, %struct.anon.34, %struct.mark_stack, i64, %struct.anon.35, ptr, %struct.anon.36, i64, %struct.anon.37, %struct.anon.38, %struct.anon.39, ptr, ptr, i64, ptr, i32, i64 }
%struct.anon.33 = type { i64, i64 }
%struct.rb_gc_config = type { i8 }
%struct.anon.19 = type { i16, [2 x i8] }
%struct.rb_heap_struct = type { i16, i64, i64, i64, i64, i64, i64, i64, i64, ptr, %struct.ccan_list_head, ptr, ptr, i64, ptr, i64, i64 }
%struct.anon.34 = type { i32 }
%struct.mark_stack = type { ptr, ptr, i32, i32, i64, i64 }
%struct.anon.35 = type { ptr, i64, i64, [2 x i64], i64, i64, i64 }
%struct.anon.36 = type { i32, i32, ptr, ptr, i64, i64, double, i64, i64, i64, i64, double, i64, i64, i64, i64, %struct.timespec, i64, %struct.timespec, i64, i64 }
%struct.timespec = type { i64, i64 }
%struct.anon.37 = type { i64, i32, i64, i64, i64, i64, i64, i64, i64 }
%struct.anon.38 = type { [31 x i64], [31 x i64], [31 x i64], [31 x i64], i64, ptr }
%struct.anon.39 = type { i64, i64 }

@.str.312 = private unnamed_addr constant [23 x i8] c"rgengc_allow_full_mark\00", align 1
@gc_config_set_key.rbimpl_id = internal global i64 0, align 8

; Function Attrs: inlinehint nounwind sspstrong willreturn memory(read) uwtable
define internal i64 @rb_intern_const(ptr noundef nonnull %0) #9 {
  %2 = alloca ptr, align 8
  %3 = alloca i64, align 8
  store ptr %0, ptr %2, align 8, !tbaa !14
  call void @llvm.lifetime.start.p0(i64 8, ptr %3) #6
  %4 = load ptr, ptr %2, align 8, !tbaa !14
  %5 = call i64 @strlen(ptr noundef %4) #44
  store i64 %5, ptr %3, align 8, !tbaa !18
  %6 = load ptr, ptr %2, align 8, !tbaa !14
  %7 = load i64, ptr %3, align 8, !tbaa !18
  %8 = call i64 @rb_intern2(ptr noundef %6, i64 noundef %7)
  call void @llvm.lifetime.end.p0(i64 8, ptr %3) #6
  ret i64 %8
}

; Function Attrs: inlinehint nounwind sspstrong willreturn memory(none) uwtable
define internal zeroext i1 @RB_TEST(i64 noundef %0) #7 {
  %2 = alloca i64, align 8
  store i64 %0, ptr %2, align 8, !tbaa !18
  %3 = load i64, ptr %2, align 8, !tbaa !18
  %4 = and i64 %3, -5
  %5 = icmp ne i64 %4, 0
  ret i1 %5
}

; Function Attrs: inlinehint nounwind sspstrong memory(argmem: readwrite, inaccessiblemem: readwrite) uwtable
define internal i64 @rbimpl_intern_const(ptr noundef nonnull %0, ptr noundef nonnull %1) #34 {
  %3 = alloca ptr, align 8
  %4 = alloca ptr, align 8
  store ptr %0, ptr %3, align 8, !tbaa !268
  store ptr %1, ptr %4, align 8, !tbaa !14
  br label %5

5:                                                ; preds = %10, %2
  %6 = load ptr, ptr %3, align 8, !tbaa !268
  %7 = load i64, ptr %6, align 8, !tbaa !18
  %8 = icmp ne i64 %7, 0
  %9 = xor i1 %8, true
  br i1 %9, label %10, label %14

10:                                               ; preds = %5
  %11 = load ptr, ptr %4, align 8, !tbaa !14
  %12 = call i64 @rb_intern_const(ptr noundef %11) #44
  %13 = load ptr, ptr %3, align 8, !tbaa !268
  store i64 %12, ptr %13, align 8, !tbaa !18
  br label %5, !llvm.loop !674

14:                                               ; preds = %5
  %15 = load ptr, ptr %3, align 8, !tbaa !268
  %16 = load i64, ptr %15, align 8, !tbaa !18
  ret i64 %16
}

; Function Attrs: nounwind sspstrong uwtable
define internal i32 @gc_config_set_key(i64 noundef %0, i64 noundef %1, i64 noundef %2) #0 {
  %4 = alloca i64, align 8
  %5 = alloca i64, align 8
  %6 = alloca i64, align 8
  %7 = alloca ptr, align 8
  %8 = alloca i64, align 8
  store i64 %0, ptr %4, align 8, !tbaa !18
  store i64 %1, ptr %5, align 8, !tbaa !18
  store i64 %2, ptr %6, align 8, !tbaa !18
  call void @llvm.lifetime.start.p0(i64 8, ptr %7) #6
  %9 = load i64, ptr %6, align 8, !tbaa !18
  %10 = inttoptr i64 %9 to ptr
  store ptr %10, ptr %7, align 8, !tbaa !125
  %11 = load i64, ptr %4, align 8, !tbaa !18
  %12 = call i64 @rb_sym2id(i64 noundef %11)
  %13 = call i64 @rbimpl_intern_const(ptr noundef @gc_config_set_key.rbimpl_id, ptr noundef @.str.312) #48
  store i64 %13, ptr %8, align 8, !tbaa !18
  %14 = load i64, ptr %8, align 8, !tbaa !18
  %15 = icmp eq i64 %12, %14
  br i1 %15, label %16, label %24

16:                                               ; preds = %3
  %17 = load ptr, ptr %7, align 8, !tbaa !125
  call void @gc_rest(ptr noundef %17)
  %18 = load i64, ptr %5, align 8, !tbaa !18
  %19 = call zeroext i1 @RB_TEST(i64 noundef %18) #42
  %20 = load ptr, ptr %7, align 8, !tbaa !125
  %21 = getelementptr inbounds nuw %struct.rb_objspace, ptr %20, i32 0, i32 1
  %22 = getelementptr inbounds nuw %struct.rb_gc_config, ptr %21, i32 0, i32 0
  %23 = zext i1 %19 to i8
  store i8 %23, ptr %22, align 8, !tbaa !126
  br label %24

24:                                               ; preds = %16, %3
  call void @llvm.lifetime.end.p0(i64 8, ptr %7) #6
  ret i32 0
}