; Function Attrs: nounwind sspstrong uwtable
define internal noundef i32 @gc_config_set_key(i64 noundef %0, i64 noundef %1, i64 noundef %2) #0 {
  %4 = tail call i64 @rb_sym2id(i64 noundef %0) #7
  %.pr.i = load i64, ptr @gc_config_set_key.rbimpl_id, align 8, !tbaa !93
  %.not4.i = icmp eq i64 %.pr.i, 0
  br i1 %.not4.i, label %.lr.ph.i, label %rbimpl_intern_const.exit

.lr.ph.i:                                         ; preds = %3, %.lr.ph.i
  %5 = tail call i64 @rb_intern2(ptr noundef nonnull @.str.312, i64 noundef 22) #7
  store i64 %5, ptr @gc_config_set_key.rbimpl_id, align 8, !tbaa !93
  %.not.i = icmp eq i64 %5, 0
  br i1 %.not.i, label %.lr.ph.i, label %rbimpl_intern_const.exit, !llvm.loop !343

rbimpl_intern_const.exit:                         ; preds = %.lr.ph.i, %3
  %.lcssa.i = phi i64 [ %.pr.i, %3 ], [ %5, %.lr.ph.i ]
  %6 = icmp eq i64 %4, %.lcssa.i
  br i1 %6, label %7, label %13

7:                                                ; preds = %rbimpl_intern_const.exit
  %8 = inttoptr i64 %2 to ptr
  tail call fastcc void @gc_rest(ptr noundef %8)
  %9 = and i64 %1, -5
  %10 = icmp ne i64 %9, 0
  %11 = getelementptr inbounds nuw i8, ptr %8, i64 16
  %12 = zext i1 %10 to i8
  store i8 %12, ptr %11, align 8, !tbaa !120
  br label %13

13:                                               ; preds = %7, %rbimpl_intern_const.exit
  ret i32 0
}